target datalayout = "e-m:e-p270:32:32-p271:32:32-p272:64:64-i64:64-i128:128-f80:128-n8:16:32:64-S128"
target triple = "x86_64-pc-linux-gnu"

%struct.crypto_secretstream_xchacha20poly1305_state = type { [32 x i8], [12 x i8], [8 x i8] }

; Function Attrs: alwaysinline nounwind
define internal ptr @memset.inline(ptr nonnull %0, i32 %1, i64 %2) #3 {
  %4 = alloca ptr, align 8
  %5 = alloca i32, align 4
  %6 = alloca i64, align 8
  store ptr %0, ptr %4, align 8
  store i32 %1, ptr %5, align 4
  store i64 %2, ptr %6, align 8
  %7 = load ptr, ptr %4, align 8
  %8 = load i32, ptr %5, align 4
  %9 = load i64, ptr %6, align 8
  %10 = load ptr, ptr %4, align 8
  %11 = call i64 @llvm.objectsize.i64.p0(ptr %10, i1 false, i1 true, i1 true)
  %12 = call ptr @__memset_chk(ptr noundef %7, i32 noundef %8, i64 noundef %9, i64 noundef %11) #8
  ret ptr %12
}

; Function Attrs: alwaysinline nounwind
define internal ptr @memcpy.inline(ptr noalias nonnull %0, ptr noalias nonnull %1, i64 %2) #3 {
  %4 = alloca ptr, align 8
  %5 = alloca ptr, align 8
  %6 = alloca i64, align 8
  store ptr %0, ptr %4, align 8
  store ptr %1, ptr %5, align 8
  store i64 %2, ptr %6, align 8
  %7 = load ptr, ptr %4, align 8
  %8 = load ptr, ptr %5, align 8
  %9 = load i64, ptr %6, align 8
  %10 = load ptr, ptr %4, align 8
  %11 = call i64 @llvm.objectsize.i64.p0(ptr %10, i1 false, i1 true, i1 true)
  %12 = call ptr @__memcpy_chk(ptr noundef %7, ptr noundef %8, i64 noundef %9, i64 noundef %11) #8
  ret ptr %12
}

; Function Attrs: inlinehint nounwind ssp uwtable
define internal void @_crypto_secretstream_xchacha20poly1305_counter_reset(ptr noundef %0) #2 {
  %2 = alloca ptr, align 8
  store ptr %0, ptr %2, align 8
  %3 = load ptr, ptr %2, align 8
  %4 = getelementptr inbounds nuw %struct.crypto_secretstream_xchacha20poly1305_state, ptr %3, i32 0, i32 1
  %5 = getelementptr inbounds [12 x i8], ptr %4, i64 0, i64 0
  %6 = call ptr @memset.inline(ptr noundef %5, i32 noundef 0, i64 noundef 4) #8
  %7 = load ptr, ptr %2, align 8
  %8 = getelementptr inbounds nuw %struct.crypto_secretstream_xchacha20poly1305_state, ptr %7, i32 0, i32 1
  %9 = getelementptr [12 x i8], ptr %8, i64 0, i64 0
  store i8 1, ptr %9, align 1
  ret void
}

; Function Attrs: nounwind ssp uwtable
define dso_local i32 @crypto_secretstream_xchacha20poly1305_init_pull(ptr noundef nonnull %0, ptr noundef nonnull %1, ptr noundef nonnull %2) #0 {
  %4 = alloca ptr, align 8
  %5 = alloca ptr, align 8
  %6 = alloca ptr, align 8
  store ptr %0, ptr %4, align 8
  store ptr %1, ptr %5, align 8
  store ptr %2, ptr %6, align 8
  %7 = load ptr, ptr %4, align 8
  %8 = getelementptr inbounds nuw %struct.crypto_secretstream_xchacha20poly1305_state, ptr %7, i32 0, i32 0
  %9 = getelementptr inbounds [32 x i8], ptr %8, i64 0, i64 0
  %10 = load ptr, ptr %5, align 8
  %11 = load ptr, ptr %6, align 8
  %12 = call i32 @crypto_core_hchacha20(ptr noundef %9, ptr noundef %10, ptr noundef %11, ptr noundef null)
  %13 = load ptr, ptr %4, align 8
  call void @_crypto_secretstream_xchacha20poly1305_counter_reset(ptr noundef %13)
  %14 = load ptr, ptr %4, align 8
  %15 = getelementptr inbounds nuw %struct.crypto_secretstream_xchacha20poly1305_state, ptr %14, i32 0, i32 1
  %16 = getelementptr inbounds [12 x i8], ptr %15, i64 0, i64 0
  %17 = getelementptr i8, ptr %16, i64 4
  %18 = load ptr, ptr %5, align 8
  %19 = getelementptr i8, ptr %18, i64 16
  %20 = call ptr @memcpy.inline(ptr noundef %17, ptr noundef %19, i64 noundef 8) #8
  %21 = load ptr, ptr %4, align 8
  %22 = getelementptr inbounds nuw %struct.crypto_secretstream_xchacha20poly1305_state, ptr %21, i32 0, i32 2
  %23 = getelementptr inbounds [8 x i8], ptr %22, i64 0, i64 0
  %24 = call ptr @memset.inline(ptr noundef %23, i32 noundef 0, i64 noundef 8) #8
  ret i32 0
}